target datalayout = "e-m:e-p270:32:32-p271:32:32-p272:64:64-i64:64-i128:128-f80:128-n8:16:32:64-S128"
target triple = "x86_64-pc-linux-gnu"

%struct.lv_area_t = type { i32, i32, i32, i32 }
%struct.lv_color_t = type { i8, i8, i8 }
%struct._lv_draw_image_dsc_t = type { %struct.lv_draw_dsc_base_t, ptr, %struct.lv_image_header_t, i32, i32, i32, i32, i32, %struct.lv_point_t, %struct.lv_color_t, i8, i8, i8, ptr, %struct.lv_area_t, i32, ptr }
%struct.lv_draw_dsc_base_t = type { ptr, i32, i32, i32, ptr, i64, ptr }
%struct.lv_image_header_t = type <{ i64, i32 }>
%struct.lv_point_t = type { i32, i32 }
%struct._lv_image_decoder_dsc_t = type { ptr, %struct._lv_image_decoder_args_t, ptr, i32, %struct.lv_fs_file_t, %struct.lv_image_header_t, ptr, ptr, i32, i32, ptr, ptr, ptr, ptr }
%struct._lv_image_decoder_args_t = type { i8, i8, i8, i8, i8 }
%struct.lv_fs_file_t = type { ptr, ptr, ptr }
%struct._lv_draw_unit_t = type { ptr, ptr, ptr, ptr, ptr, ptr, ptr, ptr }

; Function Attrs: inlinehint nounwind uwtable
define internal void @lv_area_copy(ptr noundef %0, ptr noundef %1) #1 {
  %3 = alloca ptr, align 8
  %4 = alloca ptr, align 8
  store ptr %0, ptr %3, align 8, !tbaa !3
  store ptr %1, ptr %4, align 8, !tbaa !3
  %5 = load ptr, ptr %4, align 8, !tbaa !3
  %6 = getelementptr inbounds nuw %struct.lv_area_t, ptr %5, i32 0, i32 0
  %7 = load i32, ptr %6, align 4, !tbaa !29
  %8 = load ptr, ptr %3, align 8, !tbaa !3
  %9 = getelementptr inbounds nuw %struct.lv_area_t, ptr %8, i32 0, i32 0
  store i32 %7, ptr %9, align 4, !tbaa !29
  %10 = load ptr, ptr %4, align 8, !tbaa !3
  %11 = getelementptr inbounds nuw %struct.lv_area_t, ptr %10, i32 0, i32 1
  %12 = load i32, ptr %11, align 4, !tbaa !30
  %13 = load ptr, ptr %3, align 8, !tbaa !3
  %14 = getelementptr inbounds nuw %struct.lv_area_t, ptr %13, i32 0, i32 1
  store i32 %12, ptr %14, align 4, !tbaa !30
  %15 = load ptr, ptr %4, align 8, !tbaa !3
  %16 = getelementptr inbounds nuw %struct.lv_area_t, ptr %15, i32 0, i32 2
  %17 = load i32, ptr %16, align 4, !tbaa !37
  %18 = load ptr, ptr %3, align 8, !tbaa !3
  %19 = getelementptr inbounds nuw %struct.lv_area_t, ptr %18, i32 0, i32 2
  store i32 %17, ptr %19, align 4, !tbaa !37
  %20 = load ptr, ptr %4, align 8, !tbaa !3
  %21 = getelementptr inbounds nuw %struct.lv_area_t, ptr %20, i32 0, i32 3
  %22 = load i32, ptr %21, align 4, !tbaa !38
  %23 = load ptr, ptr %3, align 8, !tbaa !3
  %24 = getelementptr inbounds nuw %struct.lv_area_t, ptr %23, i32 0, i32 3
  store i32 %22, ptr %24, align 4, !tbaa !38
  ret void
}

; Function Attrs: nounwind uwtable
define void @lv_draw_image_normal_helper(ptr noundef %0, ptr noundef %1, ptr noundef %2, ptr noundef %3) #0 {
  %5 = alloca ptr, align 8
  %6 = alloca ptr, align 8
  %7 = alloca ptr, align 8
  %8 = alloca ptr, align 8
  %9 = alloca %struct.lv_area_t, align 4
  %10 = alloca i32, align 4
  %11 = alloca i32, align 4
  %12 = alloca %struct.lv_area_t, align 4
  %13 = alloca i32, align 4
  %14 = alloca %struct._lv_image_decoder_dsc_t, align 8
  %15 = alloca i32, align 4
  store ptr %0, ptr %5, align 8, !tbaa !3
  store ptr %1, ptr %6, align 8, !tbaa !3
  store ptr %2, ptr %7, align 8, !tbaa !3
  store ptr %3, ptr %8, align 8, !tbaa !3
  %16 = load ptr, ptr %8, align 8, !tbaa !3
  %17 = icmp eq ptr %16, null
  br i1 %17, label %18, label %21

18:                                               ; preds = %4
  br label %19

19:                                               ; preds = %18
  br label %20

20:                                               ; preds = %19
  br label %106

21:                                               ; preds = %4
  call void @llvm.lifetime.start.p0(i64 16, ptr %9) #5
  %22 = load ptr, ptr %7, align 8, !tbaa !3
  call void @lv_area_copy(ptr noundef %9, ptr noundef %22)
  %23 = load ptr, ptr %6, align 8, !tbaa !3
  %24 = getelementptr inbounds nuw %struct._lv_draw_image_dsc_t, ptr %23, i32 0, i32 3
  %25 = load i32, ptr %24, align 4, !tbaa !28
  %26 = icmp ne i32 %25, 0
  br i1 %26, label %37, label %27

27:                                               ; preds = %21
  %28 = load ptr, ptr %6, align 8, !tbaa !3
  %29 = getelementptr inbounds nuw %struct._lv_draw_image_dsc_t, ptr %28, i32 0, i32 4
  %30 = load i32, ptr %29, align 8, !tbaa !19
  %31 = icmp ne i32 %30, 256
  br i1 %31, label %37, label %32

32:                                               ; preds = %27
  %33 = load ptr, ptr %6, align 8, !tbaa !3
  %34 = getelementptr inbounds nuw %struct._lv_draw_image_dsc_t, ptr %33, i32 0, i32 5
  %35 = load i32, ptr %34, align 4, !tbaa !20
  %36 = icmp ne i32 %35, 256
  br i1 %36, label %37, label %81

37:                                               ; preds = %32, %27, %21
  call void @llvm.lifetime.start.p0(i64 4, ptr %10) #5
  %38 = load ptr, ptr %7, align 8, !tbaa !3
  %39 = call i32 @lv_area_get_width(ptr noundef %38)
  store i32 %39, ptr %10, align 4, !tbaa !35
  call void @llvm.lifetime.start.p0(i64 4, ptr %11) #5
  %40 = load ptr, ptr %7, align 8, !tbaa !3
  %41 = call i32 @lv_area_get_height(ptr noundef %40)
  store i32 %41, ptr %11, align 4, !tbaa !35
  %42 = load i32, ptr %10, align 4, !tbaa !35
  %43 = load i32, ptr %11, align 4, !tbaa !35
  %44 = load ptr, ptr %6, align 8, !tbaa !3
  %45 = getelementptr inbounds nuw %struct._lv_draw_image_dsc_t, ptr %44, i32 0, i32 3
  %46 = load i32, ptr %45, align 4, !tbaa !28
  %47 = load ptr, ptr %6, align 8, !tbaa !3
  %48 = getelementptr inbounds nuw %struct._lv_draw_image_dsc_t, ptr %47, i32 0, i32 4
  %49 = load i32, ptr %48, align 8, !tbaa !19
  %50 = trunc i32 %49 to i16
  %51 = load ptr, ptr %6, align 8, !tbaa !3
  %52 = getelementptr inbounds nuw %struct._lv_draw_image_dsc_t, ptr %51, i32 0, i32 5
  %53 = load i32, ptr %52, align 4, !tbaa !20
  %54 = trunc i32 %53 to i16
  %55 = load ptr, ptr %6, align 8, !tbaa !3
  %56 = getelementptr inbounds nuw %struct._lv_draw_image_dsc_t, ptr %55, i32 0, i32 8
  call void @lv_image_buf_get_transformed_area(ptr noundef %9, i32 noundef %42, i32 noundef %43, i32 noundef %46, i16 noundef zeroext %50, i16 noundef zeroext %54, ptr noundef %56)
  %57 = load ptr, ptr %7, align 8, !tbaa !3
  %58 = getelementptr inbounds nuw %struct.lv_area_t, ptr %57, i32 0, i32 0
  %59 = load i32, ptr %58, align 4, !tbaa !29
  %60 = getelementptr inbounds nuw %struct.lv_area_t, ptr %9, i32 0, i32 0
  %61 = load i32, ptr %60, align 4, !tbaa !29
  %62 = add nsw i32 %61, %59
  store i32 %62, ptr %60, align 4, !tbaa !29
  %63 = load ptr, ptr %7, align 8, !tbaa !3
  %64 = getelementptr inbounds nuw %struct.lv_area_t, ptr %63, i32 0, i32 1
  %65 = load i32, ptr %64, align 4, !tbaa !30
  %66 = getelementptr inbounds nuw %struct.lv_area_t, ptr %9, i32 0, i32 1
  %67 = load i32, ptr %66, align 4, !tbaa !30
  %68 = add nsw i32 %67, %65
  store i32 %68, ptr %66, align 4, !tbaa !30
  %69 = load ptr, ptr %7, align 8, !tbaa !3
  %70 = getelementptr inbounds nuw %struct.lv_area_t, ptr %69, i32 0, i32 0
  %71 = load i32, ptr %70, align 4, !tbaa !29
  %72 = getelementptr inbounds nuw %struct.lv_area_t, ptr %9, i32 0, i32 2
  %73 = load i32, ptr %72, align 4, !tbaa !37
  %74 = add nsw i32 %73, %71
  store i32 %74, ptr %72, align 4, !tbaa !37
  %75 = load ptr, ptr %7, align 8, !tbaa !3
  %76 = getelementptr inbounds nuw %struct.lv_area_t, ptr %75, i32 0, i32 1
  %77 = load i32, ptr %76, align 4, !tbaa !30
  %78 = getelementptr inbounds nuw %struct.lv_area_t, ptr %9, i32 0, i32 3
  %79 = load i32, ptr %78, align 4, !tbaa !38
  %80 = add nsw i32 %79, %77
  store i32 %80, ptr %78, align 4, !tbaa !38
  call void @llvm.lifetime.end.p0(i64 4, ptr %11) #5
  call void @llvm.lifetime.end.p0(i64 4, ptr %10) #5
  br label %81

81:                                               ; preds = %37, %32
  call void @llvm.lifetime.start.p0(i64 16, ptr %12) #5
  %82 = load ptr, ptr %5, align 8, !tbaa !3
  %83 = getelementptr inbounds nuw %struct._lv_draw_unit_t, ptr %82, i32 0, i32 2
  %84 = load ptr, ptr %83, align 8, !tbaa !41
  %85 = call zeroext i1 @lv_area_intersect(ptr noundef %12, ptr noundef %9, ptr noundef %84)
  br i1 %85, label %87, label %86

86:                                               ; preds = %81
  store i32 1, ptr %13, align 4
  br label %104

87:                                               ; preds = %81
  call void @llvm.lifetime.start.p0(i64 128, ptr %14) #5
  call void @llvm.lifetime.start.p0(i64 4, ptr %15) #5
  %88 = load ptr, ptr %6, align 8, !tbaa !3
  %89 = getelementptr inbounds nuw %struct._lv_draw_image_dsc_t, ptr %88, i32 0, i32 1
  %90 = load ptr, ptr %89, align 8, !tbaa !31
  %91 = call i32 @lv_image_decoder_open(ptr noundef %14, ptr noundef %90, ptr noundef null)
  store i32 %91, ptr %15, align 4, !tbaa !35
  %92 = load i32, ptr %15, align 4, !tbaa !35
  %93 = icmp ne i32 %92, 1
  br i1 %93, label %94, label %98

94:                                               ; preds = %87
  br label %95

95:                                               ; preds = %94
  br label %96

96:                                               ; preds = %95
  br label %97

97:                                               ; preds = %96
  store i32 1, ptr %13, align 4
  br label %103

98:                                               ; preds = %87
  %99 = load ptr, ptr %5, align 8, !tbaa !3
  %100 = load ptr, ptr %6, align 8, !tbaa !3
  %101 = load ptr, ptr %7, align 8, !tbaa !3
  %102 = load ptr, ptr %8, align 8, !tbaa !3
  call void @img_decode_and_draw(ptr noundef %99, ptr noundef %100, ptr noundef %14, ptr noundef null, ptr noundef %101, ptr noundef %12, ptr noundef %102)
  call void @lv_image_decoder_close(ptr noundef %14)
  store i32 0, ptr %13, align 4
  br label %103

103:                                              ; preds = %98, %97
  call void @llvm.lifetime.end.p0(i64 4, ptr %15) #5
  call void @llvm.lifetime.end.p0(i64 128, ptr %14) #5
  br label %104

104:                                              ; preds = %103, %86
  call void @llvm.lifetime.end.p0(i64 16, ptr %12) #5
  call void @llvm.lifetime.end.p0(i64 16, ptr %9) #5
  %105 = load i32, ptr %13, align 4
  switch i32 %105, label %107 [
    i32 0, label %106
    i32 1, label %106
  ]

106:                                              ; preds = %20, %104, %104
  ret void

107:                                              ; preds = %104
  unreachable
}