; Function Attrs: nounwind uwtable
define void @lv_draw_image_normal_helper(ptr noundef %0, ptr noundef %1, ptr noundef %2, ptr noundef readonly %3) local_unnamed_addr #0 {
  %5 = alloca %struct.lv_area_t, align 4
  %6 = alloca %struct.lv_area_t, align 4
  %7 = alloca %struct._lv_image_decoder_dsc_t, align 8
  %8 = icmp eq ptr %3, null
  br i1 %8, label %60, label %9

9:                                                ; preds = %4
  call void @llvm.lifetime.start.p0(i64 16, ptr nonnull %5) #6
  %10 = load i32, ptr %2, align 4, !tbaa !25
  store i32 %10, ptr %5, align 4, !tbaa !25
  %11 = getelementptr inbounds nuw i8, ptr %2, i64 4
  %12 = load i32, ptr %11, align 4, !tbaa !26
  %13 = getelementptr inbounds nuw i8, ptr %5, i64 4
  store i32 %12, ptr %13, align 4, !tbaa !26
  %14 = getelementptr inbounds nuw i8, ptr %2, i64 8
  %15 = load i32, ptr %14, align 4, !tbaa !34
  %16 = getelementptr inbounds nuw i8, ptr %5, i64 8
  store i32 %15, ptr %16, align 4, !tbaa !34
  %17 = getelementptr inbounds nuw i8, ptr %2, i64 12
  %18 = load i32, ptr %17, align 4, !tbaa !35
  %19 = getelementptr inbounds nuw i8, ptr %5, i64 12
  store i32 %18, ptr %19, align 4, !tbaa !35
  %20 = getelementptr inbounds nuw i8, ptr %1, i64 68
  %21 = load i32, ptr %20, align 4, !tbaa !24
  %.not = icmp eq i32 %21, 0
  br i1 %.not, label %22, label %28

22:                                               ; preds = %9
  %23 = getelementptr inbounds nuw i8, ptr %1, i64 72
  %24 = load i32, ptr %23, align 8, !tbaa !16
  %.not23 = icmp eq i32 %24, 256
  br i1 %.not23, label %25, label %28

25:                                               ; preds = %22
  %26 = getelementptr inbounds nuw i8, ptr %1, i64 76
  %27 = load i32, ptr %26, align 4, !tbaa !17
  %.not24 = icmp eq i32 %27, 256
  br i1 %.not24, label %49, label %28

28:                                               ; preds = %25, %22, %9
  %29 = tail call i32 @lv_area_get_width(ptr noundef nonnull %2) #6
  %30 = tail call i32 @lv_area_get_height(ptr noundef nonnull %2) #6
  %31 = load i32, ptr %20, align 4, !tbaa !24
  %32 = getelementptr inbounds nuw i8, ptr %1, i64 72
  %33 = load i32, ptr %32, align 8, !tbaa !16
  %34 = trunc i32 %33 to i16
  %35 = getelementptr inbounds nuw i8, ptr %1, i64 76
  %36 = load i32, ptr %35, align 4, !tbaa !17
  %37 = trunc i32 %36 to i16
  %38 = getelementptr inbounds nuw i8, ptr %1, i64 88
  call void @lv_image_buf_get_transformed_area(ptr noundef nonnull %5, i32 noundef %29, i32 noundef %30, i32 noundef %31, i16 noundef zeroext %34, i16 noundef zeroext %37, ptr noundef nonnull %38)
  %39 = load i32, ptr %2, align 4, !tbaa !25
  %40 = load i32, ptr %5, align 4, !tbaa !25
  %41 = add nsw i32 %40, %39
  store i32 %41, ptr %5, align 4, !tbaa !25
  %42 = load i32, ptr %11, align 4, !tbaa !26
  %43 = load i32, ptr %13, align 4, !tbaa !26
  %44 = add nsw i32 %43, %42
  store i32 %44, ptr %13, align 4, !tbaa !26
  %45 = load i32, ptr %16, align 4, !tbaa !34
  %46 = add nsw i32 %45, %39
  store i32 %46, ptr %16, align 4, !tbaa !34
  %47 = load i32, ptr %19, align 4, !tbaa !35
  %48 = add nsw i32 %47, %42
  store i32 %48, ptr %19, align 4, !tbaa !35
  br label %49

49:                                               ; preds = %28, %25
  call void @llvm.lifetime.start.p0(i64 16, ptr nonnull %6) #6
  %50 = getelementptr inbounds nuw i8, ptr %0, i64 16
  %51 = load ptr, ptr %50, align 8, !tbaa !36
  %52 = call zeroext i1 @lv_area_intersect(ptr noundef nonnull %6, ptr noundef nonnull %5, ptr noundef %51) #6
  br i1 %52, label %53, label %59

53:                                               ; preds = %49
  call void @llvm.lifetime.start.p0(i64 128, ptr nonnull %7) #6
  %54 = getelementptr inbounds nuw i8, ptr %1, i64 48
  %55 = load ptr, ptr %54, align 8, !tbaa !27
  %56 = call i32 @lv_image_decoder_open(ptr noundef nonnull %7, ptr noundef %55, ptr noundef null) #6
  %.not25 = icmp eq i32 %56, 1
  br i1 %.not25, label %57, label %58

57:                                               ; preds = %53
  call fastcc void @img_decode_and_draw(ptr noundef nonnull %0, ptr noundef nonnull %1, ptr noundef %7, ptr noundef null, ptr noundef nonnull %2, ptr noundef %6, ptr noundef %3)
  call void @lv_image_decoder_close(ptr noundef nonnull %7) #6
  br label %58

58:                                               ; preds = %53, %57
  call void @llvm.lifetime.end.p0(i64 128, ptr nonnull %7) #6
  br label %59

59:                                               ; preds = %49, %58
  call void @llvm.lifetime.end.p0(i64 16, ptr nonnull %6) #6
  call void @llvm.lifetime.end.p0(i64 16, ptr nonnull %5) #6
  br label %60

60:                                               ; preds = %4, %59
  ret void
}